target datalayout = "e-m:e-p270:32:32-p271:32:32-p272:64:64-i64:64-i128:128-f80:128-n8:16:32:64-S128"
target triple = "x86_64-unknown-linux-gnu"

%class.btHeightfieldTerrainShape = type { %class.btConcaveShape.base, %class.btVector3, %class.btVector3, %class.btVector3, i32, i32, float, float, float, float, float, %union.anon.0, i32, i8, i8, i8, i8, i32, %class.btVector3, [4 x i8], %class.btAlignedObjectArray, i32, i32, i32, float, ptr }
%class.btConcaveShape.base = type <{ %class.btCollisionShape, float }>
%class.btCollisionShape = type { ptr, i32, ptr, i32, i32 }
%union.anon.0 = type { ptr }
%class.btVector3 = type { [4 x float] }
%class.btAlignedObjectArray = type <{ %class.btAlignedAllocator, [3 x i8], i32, i32, [4 x i8], ptr, i8, [7 x i8] }>
%class.btAlignedAllocator = type { i8 }

; Function Attrs: mustprogress nounwind uwtable
define linkonce_odr dso_local void @_Z8btSetMinIfEvRT_RKS0_(ptr noundef nonnull align 4 dereferenceable(4) %a, ptr noundef nonnull align 4 dereferenceable(4) %b) #1 comdat {
entry:
  %a.addr = alloca ptr, align 8
  %b.addr = alloca ptr, align 8
  store ptr %a, ptr %a.addr, align 8
  store ptr %b, ptr %b.addr, align 8
  %0 = load ptr, ptr %b.addr, align 8
  %1 = load float, ptr %0, align 4
  %2 = load ptr, ptr %a.addr, align 8
  %3 = load float, ptr %2, align 4
  %cmp = fcmp olt float %1, %3
  br i1 %cmp, label %if.then, label %if.end

if.then:                                          ; preds = %entry
  %4 = load ptr, ptr %b.addr, align 8
  %5 = load float, ptr %4, align 4
  %6 = load ptr, ptr %a.addr, align 8
  store float %5, ptr %6, align 4
  br label %if.end

if.end:                                           ; preds = %if.then, %entry
  ret void
}

; Function Attrs: mustprogress nounwind uwtable
define linkonce_odr dso_local noundef nonnull align 4 dereferenceable(4) ptr @_ZNK9btVector31wEv(ptr noundef nonnull align 4 dereferenceable(16) %this) #1 comdat align 2 {
entry:
  %this.addr = alloca ptr, align 8
  store ptr %this, ptr %this.addr, align 8
  %this1 = load ptr, ptr %this.addr, align 8
  %m_floats = getelementptr inbounds %class.btVector3, ptr %this1, i32 0, i32 0
  %arrayidx = getelementptr inbounds [4 x float], ptr %m_floats, i64 0, i64 3
  ret ptr %arrayidx
}

; Function Attrs: mustprogress nounwind uwtable
define linkonce_odr dso_local void @_Z8btSetMaxIfEvRT_RKS0_(ptr noundef nonnull align 4 dereferenceable(4) %a, ptr noundef nonnull align 4 dereferenceable(4) %b) #1 comdat {
entry:
  %a.addr = alloca ptr, align 8
  %b.addr = alloca ptr, align 8
  store ptr %a, ptr %a.addr, align 8
  store ptr %b, ptr %b.addr, align 8
  %0 = load ptr, ptr %a.addr, align 8
  %1 = load float, ptr %0, align 4
  %2 = load ptr, ptr %b.addr, align 8
  %3 = load float, ptr %2, align 4
  %cmp = fcmp olt float %1, %3
  br i1 %cmp, label %if.then, label %if.end

if.then:                                          ; preds = %entry
  %4 = load ptr, ptr %b.addr, align 8
  %5 = load float, ptr %4, align 4
  %6 = load ptr, ptr %a.addr, align 8
  store float %5, ptr %6, align 4
  br label %if.end

if.end:                                           ; preds = %if.then, %entry
  ret void
}

; Function Attrs: mustprogress nounwind uwtable
define linkonce_odr dso_local noundef nonnull align 4 dereferenceable(4) ptr @_ZNK9btVector34getZEv(ptr noundef nonnull align 4 dereferenceable(16) %this) #1 comdat align 2 {
entry:
  %this.addr = alloca ptr, align 8
  store ptr %this, ptr %this.addr, align 8
  %this1 = load ptr, ptr %this.addr, align 8
  %m_floats = getelementptr inbounds %class.btVector3, ptr %this1, i32 0, i32 0
  %arrayidx = getelementptr inbounds [4 x float], ptr %m_floats, i64 0, i64 2
  ret ptr %arrayidx
}

; Function Attrs: mustprogress nounwind uwtable
define linkonce_odr dso_local noundef nonnull align 4 dereferenceable(4) ptr @_ZNK9btVector34getYEv(ptr noundef nonnull align 4 dereferenceable(16) %this) #1 comdat align 2 {
entry:
  %this.addr = alloca ptr, align 8
  store ptr %this, ptr %this.addr, align 8
  %this1 = load ptr, ptr %this.addr, align 8
  %m_floats = getelementptr inbounds %class.btVector3, ptr %this1, i32 0, i32 0
  %arrayidx = getelementptr inbounds [4 x float], ptr %m_floats, i64 0, i64 1
  ret ptr %arrayidx
}

; Function Attrs: mustprogress nounwind uwtable
define internal noundef i32 @_ZL12getQuantizedf(float noundef %x) #1 {
entry:
  %retval = alloca i32, align 4
  %x.addr = alloca float, align 4
  store float %x, ptr %x.addr, align 4
  %0 = load float, ptr %x.addr, align 4
  %conv = fpext float %0 to double
  %cmp = fcmp olt double %conv, 0.000000e+00
  br i1 %cmp, label %if.then, label %if.end

if.then:                                          ; preds = %entry
  %1 = load float, ptr %x.addr, align 4
  %conv1 = fpext float %1 to double
  %sub = fsub double %conv1, 5.000000e-01
  %conv2 = fptosi double %sub to i32
  store i32 %conv2, ptr %retval, align 4
  br label %return

if.end:                                           ; preds = %entry
  %2 = load float, ptr %x.addr, align 4
  %conv3 = fpext float %2 to double
  %add = fadd double %conv3, 5.000000e-01
  %conv4 = fptosi double %add to i32
  store i32 %conv4, ptr %retval, align 4
  br label %return

return:                                           ; preds = %if.end, %if.then
  %3 = load i32, ptr %retval, align 4
  ret i32 %3
}

; Function Attrs: mustprogress nounwind uwtable
define linkonce_odr dso_local noundef nonnull align 4 dereferenceable(4) ptr @_ZNK9btVector34getXEv(ptr noundef nonnull align 4 dereferenceable(16) %this) #1 comdat align 2 {
entry:
  %this.addr = alloca ptr, align 8
  store ptr %this, ptr %this.addr, align 8
  %this1 = load ptr, ptr %this.addr, align 8
  %m_floats = getelementptr inbounds %class.btVector3, ptr %this1, i32 0, i32 0
  %arrayidx = getelementptr inbounds [4 x float], ptr %m_floats, i64 0, i64 0
  ret ptr %arrayidx
}

; Function Attrs: mustprogress uwtable
define linkonce_odr dso_local void @_ZN9btVector36setMinERKS_(ptr noundef nonnull align 4 dereferenceable(16) %this, ptr noundef nonnull align 4 dereferenceable(16) %other) #2 comdat align 2 {
entry:
  %this.addr = alloca ptr, align 8
  %other.addr = alloca ptr, align 8
  store ptr %this, ptr %this.addr, align 8
  store ptr %other, ptr %other.addr, align 8
  %this1 = load ptr, ptr %this.addr, align 8
  %m_floats = getelementptr inbounds %class.btVector3, ptr %this1, i32 0, i32 0
  %arrayidx = getelementptr inbounds [4 x float], ptr %m_floats, i64 0, i64 0
  %0 = load ptr, ptr %other.addr, align 8
  %m_floats2 = getelementptr inbounds %class.btVector3, ptr %0, i32 0, i32 0
  %arrayidx3 = getelementptr inbounds [4 x float], ptr %m_floats2, i64 0, i64 0
  call void @_Z8btSetMinIfEvRT_RKS0_(ptr noundef nonnull align 4 dereferenceable(4) %arrayidx, ptr noundef nonnull align 4 dereferenceable(4) %arrayidx3)
  %m_floats4 = getelementptr inbounds %class.btVector3, ptr %this1, i32 0, i32 0
  %arrayidx5 = getelementptr inbounds [4 x float], ptr %m_floats4, i64 0, i64 1
  %1 = load ptr, ptr %other.addr, align 8
  %m_floats6 = getelementptr inbounds %class.btVector3, ptr %1, i32 0, i32 0
  %arrayidx7 = getelementptr inbounds [4 x float], ptr %m_floats6, i64 0, i64 1
  call void @_Z8btSetMinIfEvRT_RKS0_(ptr noundef nonnull align 4 dereferenceable(4) %arrayidx5, ptr noundef nonnull align 4 dereferenceable(4) %arrayidx7)
  %m_floats8 = getelementptr inbounds %class.btVector3, ptr %this1, i32 0, i32 0
  %arrayidx9 = getelementptr inbounds [4 x float], ptr %m_floats8, i64 0, i64 2
  %2 = load ptr, ptr %other.addr, align 8
  %m_floats10 = getelementptr inbounds %class.btVector3, ptr %2, i32 0, i32 0
  %arrayidx11 = getelementptr inbounds [4 x float], ptr %m_floats10, i64 0, i64 2
  call void @_Z8btSetMinIfEvRT_RKS0_(ptr noundef nonnull align 4 dereferenceable(4) %arrayidx9, ptr noundef nonnull align 4 dereferenceable(4) %arrayidx11)
  %m_floats12 = getelementptr inbounds %class.btVector3, ptr %this1, i32 0, i32 0
  %arrayidx13 = getelementptr inbounds [4 x float], ptr %m_floats12, i64 0, i64 3
  %3 = load ptr, ptr %other.addr, align 8
  %call = call noundef nonnull align 4 dereferenceable(4) ptr @_ZNK9btVector31wEv(ptr noundef nonnull align 4 dereferenceable(16) %3)
  call void @_Z8btSetMinIfEvRT_RKS0_(ptr noundef nonnull align 4 dereferenceable(4) %arrayidx13, ptr noundef nonnull align 4 dereferenceable(4) %call)
  ret void
}

; Function Attrs: mustprogress uwtable
define linkonce_odr dso_local void @_ZN9btVector36setMaxERKS_(ptr noundef nonnull align 4 dereferenceable(16) %this, ptr noundef nonnull align 4 dereferenceable(16) %other) #2 comdat align 2 {
entry:
  %this.addr = alloca ptr, align 8
  %other.addr = alloca ptr, align 8
  store ptr %this, ptr %this.addr, align 8
  store ptr %other, ptr %other.addr, align 8
  %this1 = load ptr, ptr %this.addr, align 8
  %m_floats = getelementptr inbounds %class.btVector3, ptr %this1, i32 0, i32 0
  %arrayidx = getelementptr inbounds [4 x float], ptr %m_floats, i64 0, i64 0
  %0 = load ptr, ptr %other.addr, align 8
  %m_floats2 = getelementptr inbounds %class.btVector3, ptr %0, i32 0, i32 0
  %arrayidx3 = getelementptr inbounds [4 x float], ptr %m_floats2, i64 0, i64 0
  call void @_Z8btSetMaxIfEvRT_RKS0_(ptr noundef nonnull align 4 dereferenceable(4) %arrayidx, ptr noundef nonnull align 4 dereferenceable(4) %arrayidx3)
  %m_floats4 = getelementptr inbounds %class.btVector3, ptr %this1, i32 0, i32 0
  %arrayidx5 = getelementptr inbounds [4 x float], ptr %m_floats4, i64 0, i64 1
  %1 = load ptr, ptr %other.addr, align 8
  %m_floats6 = getelementptr inbounds %class.btVector3, ptr %1, i32 0, i32 0
  %arrayidx7 = getelementptr inbounds [4 x float], ptr %m_floats6, i64 0, i64 1
  call void @_Z8btSetMaxIfEvRT_RKS0_(ptr noundef nonnull align 4 dereferenceable(4) %arrayidx5, ptr noundef nonnull align 4 dereferenceable(4) %arrayidx7)
  %m_floats8 = getelementptr inbounds %class.btVector3, ptr %this1, i32 0, i32 0
  %arrayidx9 = getelementptr inbounds [4 x float], ptr %m_floats8, i64 0, i64 2
  %2 = load ptr, ptr %other.addr, align 8
  %m_floats10 = getelementptr inbounds %class.btVector3, ptr %2, i32 0, i32 0
  %arrayidx11 = getelementptr inbounds [4 x float], ptr %m_floats10, i64 0, i64 2
  call void @_Z8btSetMaxIfEvRT_RKS0_(ptr noundef nonnull align 4 dereferenceable(4) %arrayidx9, ptr noundef nonnull align 4 dereferenceable(4) %arrayidx11)
  %m_floats12 = getelementptr inbounds %class.btVector3, ptr %this1, i32 0, i32 0
  %arrayidx13 = getelementptr inbounds [4 x float], ptr %m_floats12, i64 0, i64 3
  %3 = load ptr, ptr %other.addr, align 8
  %call = call noundef nonnull align 4 dereferenceable(4) ptr @_ZNK9btVector31wEv(ptr noundef nonnull align 4 dereferenceable(16) %3)
  call void @_Z8btSetMaxIfEvRT_RKS0_(ptr noundef nonnull align 4 dereferenceable(4) %arrayidx13, ptr noundef nonnull align 4 dereferenceable(4) %call)
  ret void
}

; Function Attrs: mustprogress uwtable
define dso_local void @_ZNK25btHeightfieldTerrainShape17quantizeWithClampEPiRK9btVector3i(ptr noundef nonnull align 8 dereferenceable(208) %this, ptr noundef %out, ptr noundef nonnull align 4 dereferenceable(16) %point, i32 noundef %0) #2 align 2 {
entry:
  %this.addr = alloca ptr, align 8
  %out.addr = alloca ptr, align 8
  %point.addr = alloca ptr, align 8
  %.addr = alloca i32, align 4
  %clampedPoint = alloca %class.btVector3, align 4
  store ptr %this, ptr %this.addr, align 8
  store ptr %out, ptr %out.addr, align 8
  store ptr %point, ptr %point.addr, align 8
  store i32 %0, ptr %.addr, align 4
  %this1 = load ptr, ptr %this.addr, align 8
  %1 = load ptr, ptr %point.addr, align 8
  call void @llvm.memcpy.p0.p0.i64(ptr align 4 %clampedPoint, ptr align 4 %1, i64 16, i1 false)
  %m_localAabbMin = getelementptr inbounds %class.btHeightfieldTerrainShape, ptr %this1, i32 0, i32 1
  call void @_ZN9btVector36setMaxERKS_(ptr noundef nonnull align 4 dereferenceable(16) %clampedPoint, ptr noundef nonnull align 4 dereferenceable(16) %m_localAabbMin)
  %m_localAabbMax = getelementptr inbounds %class.btHeightfieldTerrainShape, ptr %this1, i32 0, i32 2
  call void @_ZN9btVector36setMinERKS_(ptr noundef nonnull align 4 dereferenceable(16) %clampedPoint, ptr noundef nonnull align 4 dereferenceable(16) %m_localAabbMax)
  %call = call noundef nonnull align 4 dereferenceable(4) ptr @_ZNK9btVector34getXEv(ptr noundef nonnull align 4 dereferenceable(16) %clampedPoint)
  %2 = load float, ptr %call, align 4
  %call2 = call noundef i32 @_ZL12getQuantizedf(float noundef %2)
  %3 = load ptr, ptr %out.addr, align 8
  %arrayidx = getelementptr inbounds i32, ptr %3, i64 0
  store i32 %call2, ptr %arrayidx, align 4
  %call3 = call noundef nonnull align 4 dereferenceable(4) ptr @_ZNK9btVector34getYEv(ptr noundef nonnull align 4 dereferenceable(16) %clampedPoint)
  %4 = load float, ptr %call3, align 4
  %call4 = call noundef i32 @_ZL12getQuantizedf(float noundef %4)
  %5 = load ptr, ptr %out.addr, align 8
  %arrayidx5 = getelementptr inbounds i32, ptr %5, i64 1
  store i32 %call4, ptr %arrayidx5, align 4
  %call6 = call noundef nonnull align 4 dereferenceable(4) ptr @_ZNK9btVector34getZEv(ptr noundef nonnull align 4 dereferenceable(16) %clampedPoint)
  %6 = load float, ptr %call6, align 4
  %call7 = call noundef i32 @_ZL12getQuantizedf(float noundef %6)
  %7 = load ptr, ptr %out.addr, align 8
  %arrayidx8 = getelementptr inbounds i32, ptr %7, i64 2
  store i32 %call7, ptr %arrayidx8, align 4
  ret void
}