; Function Attrs: mustprogress nofree norecurse nosync nounwind willreturn memory(argmem: readwrite) uwtable
define dso_local void @_ZNK25btHeightfieldTerrainShape17quantizeWithClampEPiRK9btVector3i(ptr nocapture noundef nonnull readonly align 8 dereferenceable(208) %this, ptr nocapture noundef writeonly %out, ptr nocapture noundef nonnull readonly align 4 dereferenceable(16) %point, i32 noundef %0) local_unnamed_addr #9 align 2 {
entry:
  %clampedPoint.sroa.11.0.point.sroa_idx = getelementptr inbounds i8, ptr %point, i64 8
  %clampedPoint.sroa.11.0.copyload = load float, ptr %clampedPoint.sroa.11.0.point.sroa_idx, align 4
  %m_localAabbMin = getelementptr inbounds i8, ptr %this, i64 36
  %arrayidx11.i = getelementptr inbounds i8, ptr %this, i64 44
  %1 = load float, ptr %arrayidx11.i, align 4
  %cmp.i7.i = fcmp olt float %clampedPoint.sroa.11.0.copyload, %1
  %clampedPoint.sroa.11.0 = select i1 %cmp.i7.i, float %1, float %clampedPoint.sroa.11.0.copyload
  %m_localAabbMax = getelementptr inbounds i8, ptr %this, i64 52
  %arrayidx11.i8 = getelementptr inbounds i8, ptr %this, i64 60
  %2 = load float, ptr %arrayidx11.i8, align 4
  %cmp.i7.i9 = fcmp olt float %2, %clampedPoint.sroa.11.0
  %clampedPoint.sroa.11.1 = select i1 %cmp.i7.i9, float %2, float %clampedPoint.sroa.11.0
  %3 = load <2 x float>, ptr %point, align 4
  %4 = load <2 x float>, ptr %m_localAabbMin, align 4
  %5 = fcmp olt <2 x float> %3, %4
  %6 = select <2 x i1> %5, <2 x float> %4, <2 x float> %3
  %7 = load <2 x float>, ptr %m_localAabbMax, align 4
  %8 = fcmp olt <2 x float> %7, %6
  %9 = select <2 x i1> %8, <2 x float> %7, <2 x float> %6
  %10 = fpext <2 x float> %9 to <2 x double>
  %11 = fcmp olt <2 x float> %9, zeroinitializer
  %12 = select <2 x i1> %11, <2 x double> <double -5.000000e-01, double -5.000000e-01>, <2 x double> <double 5.000000e-01, double 5.000000e-01>
  %13 = fadd <2 x double> %12, %10
  %14 = fptosi <2 x double> %13 to <2 x i32>
  store <2 x i32> %14, ptr %out, align 4
  %conv.i23 = fpext float %clampedPoint.sroa.11.1 to double
  %cmp.i24 = fcmp olt float %clampedPoint.sroa.11.1, 0.000000e+00
  %retval.0.in.v.i25 = select i1 %cmp.i24, double -5.000000e-01, double 5.000000e-01
  %retval.0.in.i26 = fadd double %retval.0.in.v.i25, %conv.i23
  %retval.0.i27 = fptosi double %retval.0.in.i26 to i32
  %arrayidx8 = getelementptr inbounds i8, ptr %out, i64 8
  store i32 %retval.0.i27, ptr %arrayidx8, align 4
  ret void
}